target datalayout = "e-m:e-p270:32:32-p271:32:32-p272:64:64-i64:64-i128:128-f80:128-n8:16:32:64-S128"
target triple = "x86_64-pc-linux-gnu"

@.str.34 = private unnamed_addr constant [70 x i8] c"\22client_connection_check_interval\22 must be set to 0 on this platform.\00", align 1
@GUC_check_errdetail_string = external global ptr, align 8

; Function Attrs: nounwind uwtable
define dso_local zeroext i1 @check_client_connection_check_interval(ptr noundef %0, ptr noundef %1, i32 noundef %2) #0 {
  %4 = alloca i1, align 1
  %5 = alloca ptr, align 8
  %6 = alloca ptr, align 8
  %7 = alloca i32, align 4
  store ptr %0, ptr %5, align 8
  store ptr %1, ptr %6, align 8
  store i32 %2, ptr %7, align 4
  %8 = call zeroext i1 @WaitEventSetCanReportClosed()
  br i1 %8, label %17, label %9

9:                                                ; preds = %3
  %10 = load ptr, ptr %5, align 8
  %11 = load i32, ptr %10, align 4
  %12 = icmp ne i32 %11, 0
  br i1 %12, label %13, label %17

13:                                               ; preds = %9
  %14 = call ptr @__errno_location() #17
  %15 = load i32, ptr %14, align 4
  call void @pre_format_elog_string(i32 noundef %15, ptr noundef null)
  %16 = call ptr (ptr, ...) @format_elog_string(ptr noundef @.str.34)
  store ptr %16, ptr @GUC_check_errdetail_string, align 8
  store i1 false, ptr %4, align 1
  br label %18

17:                                               ; preds = %9, %3
  store i1 true, ptr %4, align 1
  br label %18

18:                                               ; preds = %17, %13
  %19 = load i1, ptr %4, align 1
  ret i1 %19
}