; Function Attrs: nounwind uwtable
define dso_local noundef zeroext i1 @check_client_connection_check_interval(ptr noundef readonly captures(none) %0, ptr noundef readnone captures(none) %1, i32 noundef %2) local_unnamed_addr #0 {
  %4 = tail call zeroext i1 @WaitEventSetCanReportClosed() #22
  br i1 %4, label %11, label %5

5:                                                ; preds = %3
  %6 = load i32, ptr %0, align 4
  %.not = icmp eq i32 %6, 0
  br i1 %.not, label %11, label %7

7:                                                ; preds = %5
  %8 = tail call ptr @__errno_location() #21
  %9 = load i32, ptr %8, align 4
  tail call void @pre_format_elog_string(i32 noundef %9, ptr noundef null) #22
  %10 = tail call ptr (ptr, ...) @format_elog_string(ptr noundef nonnull @.str.34) #22
  store ptr %10, ptr @GUC_check_errdetail_string, align 8
  br label %11

11:                                               ; preds = %3, %5, %7
  %.0 = phi i1 [ false, %7 ], [ true, %5 ], [ true, %3 ]
  ret i1 %.0
}